target datalayout = "e-m:e-p270:32:32-p271:32:32-p272:64:64-i64:64-i128:128-f80:128-n8:16:32:64-S128"
target triple = "x86_64-pc-linux-gnu"

%struct.strbuf = type { i64, i64, ptr }
%struct.git_hash_algo = type { ptr, i32, i64, i64, i64, ptr, ptr, ptr, ptr, ptr, ptr, ptr, ptr, ptr }
%struct.submodule_cache = type { %struct.hashmap, %struct.hashmap, i8 }
%struct.hashmap = type { ptr, ptr, ptr, i32, i32, i32, i32, i8 }
%struct.repository = type { ptr, ptr, ptr, ptr, ptr, %struct.strmap, %struct.strmap, %struct.repo_path_cache, ptr, ptr, ptr, ptr, %struct.repo_settings, ptr, ptr, ptr, ptr, ptr, ptr, i32, i32, i32, ptr, ptr, i32, i32, i8 }
%struct.strmap = type { %struct.hashmap, ptr, i8 }
%struct.repo_path_cache = type { ptr, ptr, ptr, ptr, ptr, ptr, ptr }
%struct.repo_settings = type { i32, i32, i32, i32, i32, i32, i32, i32, i32, i32, i32, i32, ptr, i32, i32, i32, i32, i32, i32, i32, i64, i64, i64 }
%struct.object_id = type { [32 x i8], i32 }

@__const.gitmodules_config_oid.rev = private unnamed_addr constant %struct.strbuf { i64 0, i64 0, ptr @strbuf_slopbuf }, align 8
@the_repository = external global ptr, align 8
@is_null_oid.null_hash = internal constant [32 x i8] zeroinitializer, align 16
@.str.37 = private unnamed_addr constant [15 x i8] c"%s:.gitmodules\00", align 1
@hash_algos = external constant [3 x %struct.git_hash_algo], align 16

; Function Attrs: inlinehint nounwind uwtable
define internal i32 @hash_algo_by_ptr(ptr noundef %0) #2 {
  %2 = alloca i32, align 4
  %3 = alloca ptr, align 8
  %4 = alloca i64, align 8
  %5 = alloca ptr, align 8
  %6 = alloca i32, align 4
  store ptr %0, ptr %3, align 8, !tbaa !146
  call void @llvm.lifetime.start.p0(i64 8, ptr %4) #9
  store i64 0, ptr %4, align 8, !tbaa !94
  br label %7

7:                                                ; preds = %23, %1
  %8 = load i64, ptr %4, align 8, !tbaa !94
  %9 = icmp ult i64 %8, 3
  br i1 %9, label %10, label %26

10:                                               ; preds = %7
  call void @llvm.lifetime.start.p0(i64 8, ptr %5) #9
  %11 = load i64, ptr %4, align 8, !tbaa !94
  %12 = getelementptr inbounds nuw [3 x %struct.git_hash_algo], ptr @hash_algos, i64 0, i64 %11
  store ptr %12, ptr %5, align 8, !tbaa !146
  %13 = load ptr, ptr %3, align 8, !tbaa !146
  %14 = load ptr, ptr %5, align 8, !tbaa !146
  %15 = icmp eq ptr %13, %14
  br i1 %15, label %16, label %19

16:                                               ; preds = %10
  %17 = load i64, ptr %4, align 8, !tbaa !94
  %18 = trunc i64 %17 to i32
  store i32 %18, ptr %2, align 4
  store i32 1, ptr %6, align 4
  br label %20

19:                                               ; preds = %10
  store i32 0, ptr %6, align 4
  br label %20

20:                                               ; preds = %19, %16
  call void @llvm.lifetime.end.p0(i64 8, ptr %5) #9
  %21 = load i32, ptr %6, align 4
  switch i32 %21, label %27 [
    i32 0, label %22
  ]

22:                                               ; preds = %20
  br label %23

23:                                               ; preds = %22
  %24 = load i64, ptr %4, align 8, !tbaa !94
  %25 = add i64 %24, 1
  store i64 %25, ptr %4, align 8, !tbaa !94
  br label %7, !llvm.loop !147

26:                                               ; preds = %7
  store i32 0, ptr %2, align 4
  store i32 1, ptr %6, align 4
  br label %27

27:                                               ; preds = %26, %20
  call void @llvm.lifetime.end.p0(i64 8, ptr %4) #9
  %28 = load i32, ptr %2, align 4
  ret i32 %28
}

; Function Attrs: inlinehint nounwind uwtable
define internal void @oidclr(ptr noundef %0, ptr noundef %1) #2 {
  %3 = alloca ptr, align 8
  %4 = alloca ptr, align 8
  store ptr %0, ptr %3, align 8, !tbaa !82
  store ptr %1, ptr %4, align 8, !tbaa !146
  %5 = load ptr, ptr %3, align 8, !tbaa !82
  %6 = getelementptr inbounds nuw %struct.object_id, ptr %5, i32 0, i32 0
  %7 = getelementptr inbounds [32 x i8], ptr %6, i64 0, i64 0
  call void @llvm.memset.p0.i64(ptr align 4 %7, i8 0, i64 32, i1 false)
  %8 = load ptr, ptr %4, align 8, !tbaa !146
  %9 = call i32 @hash_algo_by_ptr(ptr noundef %8)
  %10 = load ptr, ptr %3, align 8, !tbaa !82
  %11 = getelementptr inbounds nuw %struct.object_id, ptr %10, i32 0, i32 1
  store i32 %9, ptr %11, align 4, !tbaa !141
  ret void
}

; Function Attrs: inlinehint nounwind uwtable
define internal i32 @is_null_oid(ptr noundef %0) #2 {
  %2 = alloca ptr, align 8
  store ptr %0, ptr %2, align 8, !tbaa !82
  %3 = load ptr, ptr %2, align 8, !tbaa !82
  %4 = getelementptr inbounds nuw %struct.object_id, ptr %3, i32 0, i32 0
  %5 = getelementptr inbounds [32 x i8], ptr %4, i64 0, i64 0
  %6 = call i32 @memcmp(ptr noundef %5, ptr noundef @is_null_oid.null_hash, i64 noundef 32) #10
  %7 = icmp ne i32 %6, 0
  %8 = xor i1 %7, true
  %9 = zext i1 %8 to i32
  ret i32 %9
}

; Function Attrs: nounwind uwtable
define internal void @submodule_cache_init(ptr noundef %0) #0 {
  %2 = alloca ptr, align 8
  store ptr %0, ptr %2, align 8, !tbaa !4
  %3 = load ptr, ptr %2, align 8, !tbaa !4
  %4 = getelementptr inbounds nuw %struct.submodule_cache, ptr %3, i32 0, i32 0
  call void @hashmap_init(ptr noundef %4, ptr noundef @config_path_cmp, ptr noundef null, i64 noundef 0)
  %5 = load ptr, ptr %2, align 8, !tbaa !4
  %6 = getelementptr inbounds nuw %struct.submodule_cache, ptr %5, i32 0, i32 1
  call void @hashmap_init(ptr noundef %6, ptr noundef @config_name_cmp, ptr noundef null, i64 noundef 0)
  %7 = load ptr, ptr %2, align 8, !tbaa !4
  %8 = getelementptr inbounds nuw %struct.submodule_cache, ptr %7, i32 0, i32 2
  %9 = load i8, ptr %8, align 8
  %10 = and i8 %9, -2
  %11 = or i8 %10, 1
  store i8 %11, ptr %8, align 8
  ret void
}

; Function Attrs: nounwind uwtable
define internal ptr @submodule_cache_alloc() #0 {
  %1 = call ptr @xcalloc(i64 noundef 1, i64 noundef 104)
  ret ptr %1
}

; Function Attrs: nounwind uwtable
define internal i32 @gitmodule_oid_from_commit(ptr noundef %0, ptr noundef %1, ptr noundef %2) #0 {
  %4 = alloca i32, align 4
  %5 = alloca ptr, align 8
  %6 = alloca ptr, align 8
  %7 = alloca ptr, align 8
  %8 = alloca i32, align 4
  %9 = alloca i32, align 4
  store ptr %0, ptr %5, align 8, !tbaa !82
  store ptr %1, ptr %6, align 8, !tbaa !82
  store ptr %2, ptr %7, align 8, !tbaa !85
  call void @llvm.lifetime.start.p0(i64 4, ptr %8) #9
  store i32 0, ptr %8, align 4, !tbaa !17
  %10 = load ptr, ptr %5, align 8, !tbaa !82
  %11 = call i32 @is_null_oid(ptr noundef %10)
  %12 = icmp ne i32 %11, 0
  br i1 %12, label %13, label %18

13:                                               ; preds = %3
  %14 = load ptr, ptr %6, align 8, !tbaa !82
  %15 = load ptr, ptr @the_repository, align 8, !tbaa !31
  %16 = getelementptr inbounds nuw %struct.repository, ptr %15, i32 0, i32 17
  %17 = load ptr, ptr %16, align 8, !tbaa !87
  call void @oidclr(ptr noundef %14, ptr noundef %17)
  store i32 1, ptr %4, align 4
  store i32 1, ptr %9, align 4
  br label %32

18:                                               ; preds = %3
  %19 = load ptr, ptr %7, align 8, !tbaa !85
  %20 = load ptr, ptr %5, align 8, !tbaa !82
  %21 = call ptr @oid_to_hex(ptr noundef %20)
  call void (ptr, ptr, ...) @strbuf_addf(ptr noundef %19, ptr noundef @.str.37, ptr noundef %21)
  %22 = load ptr, ptr @the_repository, align 8, !tbaa !31
  %23 = load ptr, ptr %7, align 8, !tbaa !85
  %24 = getelementptr inbounds nuw %struct.strbuf, ptr %23, i32 0, i32 2
  %25 = load ptr, ptr %24, align 8, !tbaa !83
  %26 = load ptr, ptr %6, align 8, !tbaa !82
  %27 = call i32 @repo_get_oid(ptr noundef %22, ptr noundef %25, ptr noundef %26)
  %28 = icmp sge i32 %27, 0
  br i1 %28, label %29, label %30

29:                                               ; preds = %18
  store i32 1, ptr %8, align 4, !tbaa !17
  br label %30

30:                                               ; preds = %29, %18
  %31 = load i32, ptr %8, align 4, !tbaa !17
  store i32 %31, ptr %4, align 4
  store i32 1, ptr %9, align 4
  br label %32

32:                                               ; preds = %30, %13
  call void @llvm.lifetime.end.p0(i64 4, ptr %8) #9
  %33 = load i32, ptr %4, align 4
  ret i32 %33
}

; Function Attrs: nounwind uwtable
define internal void @submodule_cache_check_init(ptr noundef %0) #0 {
  %2 = alloca ptr, align 8
  store ptr %0, ptr %2, align 8, !tbaa !31
  %3 = load ptr, ptr %2, align 8, !tbaa !31
  %4 = getelementptr inbounds nuw %struct.repository, ptr %3, i32 0, i32 14
  %5 = load ptr, ptr %4, align 8, !tbaa !33
  %6 = icmp ne ptr %5, null
  br i1 %6, label %7, label %17

7:                                                ; preds = %1
  %8 = load ptr, ptr %2, align 8, !tbaa !31
  %9 = getelementptr inbounds nuw %struct.repository, ptr %8, i32 0, i32 14
  %10 = load ptr, ptr %9, align 8, !tbaa !33
  %11 = getelementptr inbounds nuw %struct.submodule_cache, ptr %10, i32 0, i32 2
  %12 = load i8, ptr %11, align 8
  %13 = and i8 %12, 1
  %14 = zext i8 %13 to i32
  %15 = icmp ne i32 %14, 0
  br i1 %15, label %16, label %17

16:                                               ; preds = %7
  br label %30

17:                                               ; preds = %7, %1
  %18 = load ptr, ptr %2, align 8, !tbaa !31
  %19 = getelementptr inbounds nuw %struct.repository, ptr %18, i32 0, i32 14
  %20 = load ptr, ptr %19, align 8, !tbaa !33
  %21 = icmp ne ptr %20, null
  br i1 %21, label %26, label %22

22:                                               ; preds = %17
  %23 = call ptr @submodule_cache_alloc()
  %24 = load ptr, ptr %2, align 8, !tbaa !31
  %25 = getelementptr inbounds nuw %struct.repository, ptr %24, i32 0, i32 14
  store ptr %23, ptr %25, align 8, !tbaa !33
  br label %26

26:                                               ; preds = %22, %17
  %27 = load ptr, ptr %2, align 8, !tbaa !31
  %28 = getelementptr inbounds nuw %struct.repository, ptr %27, i32 0, i32 14
  %29 = load ptr, ptr %28, align 8, !tbaa !33
  call void @submodule_cache_init(ptr noundef %29)
  br label %30

30:                                               ; preds = %26, %16
  ret void
}

; Function Attrs: nounwind uwtable
define dso_local void @gitmodules_config_oid(ptr noundef %0) #0 {
  %2 = alloca ptr, align 8
  %3 = alloca %struct.strbuf, align 8
  %4 = alloca %struct.object_id, align 4
  store ptr %0, ptr %2, align 8, !tbaa !82
  call void @llvm.lifetime.start.p0(i64 24, ptr %3) #9
  call void @llvm.memcpy.p0.p0.i64(ptr align 8 %3, ptr align 8 @__const.gitmodules_config_oid.rev, i64 24, i1 false)
  call void @llvm.lifetime.start.p0(i64 36, ptr %4) #9
  %5 = load ptr, ptr @the_repository, align 8, !tbaa !31
  call void @submodule_cache_check_init(ptr noundef %5)
  %6 = load ptr, ptr %2, align 8, !tbaa !82
  %7 = call i32 @gitmodule_oid_from_commit(ptr noundef %6, ptr noundef %4, ptr noundef %3)
  %8 = icmp ne i32 %7, 0
  br i1 %8, label %9, label %15

9:                                                ; preds = %1
  %10 = getelementptr inbounds nuw %struct.strbuf, ptr %3, i32 0, i32 2
  %11 = load ptr, ptr %10, align 8, !tbaa !83
  %12 = load ptr, ptr @the_repository, align 8, !tbaa !31
  %13 = load ptr, ptr @the_repository, align 8, !tbaa !31
  %14 = call i32 @git_config_from_blob_oid(ptr noundef @gitmodules_cb, ptr noundef %11, ptr noundef %12, ptr noundef %4, ptr noundef %13, i32 noundef 0)
  br label %15

15:                                               ; preds = %9, %1
  call void @strbuf_release(ptr noundef %3)
  %16 = load ptr, ptr @the_repository, align 8, !tbaa !31
  %17 = getelementptr inbounds nuw %struct.repository, ptr %16, i32 0, i32 14
  %18 = load ptr, ptr %17, align 8, !tbaa !33
  %19 = getelementptr inbounds nuw %struct.submodule_cache, ptr %18, i32 0, i32 2
  %20 = load i8, ptr %19, align 8
  %21 = and i8 %20, -3
  %22 = or i8 %21, 2
  store i8 %22, ptr %19, align 8
  call void @llvm.lifetime.end.p0(i64 36, ptr %4) #9
  call void @llvm.lifetime.end.p0(i64 24, ptr %3) #9
  ret void
}