; Function Attrs: nounwind uwtable
define dso_local void @gitmodules_config_oid(ptr noundef %0) local_unnamed_addr #0 {
  %2 = alloca %struct.strbuf, align 8
  %3 = alloca %struct.object_id, align 4
  call void @llvm.lifetime.start.p0(i64 24, ptr nonnull %2) #15
  call void @llvm.memcpy.p0.p0.i64(ptr noundef nonnull align 8 dereferenceable(24) %2, ptr noundef nonnull align 8 dereferenceable(24) @__const.config_from.rev, i64 24, i1 false)
  call void @llvm.lifetime.start.p0(i64 36, ptr nonnull %3) #15
  %4 = load ptr, ptr @the_repository, align 8, !tbaa !54
  %5 = getelementptr inbounds nuw i8, ptr %4, i64 376
  %6 = load ptr, ptr %5, align 8, !tbaa !31
  %.not.i = icmp eq ptr %6, null
  br i1 %.not.i, label %11, label %7

7:                                                ; preds = %1
  %8 = getelementptr inbounds nuw i8, ptr %6, i64 96
  %9 = load i8, ptr %8, align 8
  %10 = and i8 %9, 1
  %.not5.i = icmp eq i8 %10, 0
  br i1 %.not5.i, label %13, label %submodule_cache_check_init.exit

11:                                               ; preds = %1
  %12 = tail call ptr @xcalloc(i64 noundef 1, i64 noundef 104) #15
  store ptr %12, ptr %5, align 8, !tbaa !31
  br label %13

13:                                               ; preds = %11, %7
  %14 = phi ptr [ %6, %7 ], [ %12, %11 ]
  tail call void @hashmap_init(ptr noundef %14, ptr noundef nonnull @config_path_cmp, ptr noundef null, i64 noundef 0) #15
  %15 = getelementptr inbounds nuw i8, ptr %14, i64 48
  tail call void @hashmap_init(ptr noundef nonnull %15, ptr noundef nonnull @config_name_cmp, ptr noundef null, i64 noundef 0) #15
  %16 = getelementptr inbounds nuw i8, ptr %14, i64 96
  %17 = load i8, ptr %16, align 8
  %18 = or i8 %17, 1
  store i8 %18, ptr %16, align 8
  br label %submodule_cache_check_init.exit

submodule_cache_check_init.exit:                  ; preds = %7, %13
  %bcmp.i.i = tail call i32 @bcmp(ptr noundef nonnull readonly dereferenceable(32) %0, ptr noundef nonnull dereferenceable(32) @is_null_oid.null_hash, i64 32)
  %.not.i.not.i = icmp eq i32 %bcmp.i.i, 0
  br i1 %.not.i.not.i, label %19, label %gitmodule_oid_from_commit.exit

19:                                               ; preds = %submodule_cache_check_init.exit
  %20 = load ptr, ptr @the_repository, align 8, !tbaa !54
  %21 = getelementptr inbounds nuw i8, ptr %20, i64 400
  %22 = load ptr, ptr %21, align 8, !tbaa !80
  call void @llvm.memset.p0.i64(ptr noundef nonnull align 4 dereferenceable(32) %3, i8 0, i64 32, i1 false)
  br label %23

23:                                               ; preds = %25, %19
  %.0811.i.i.i = phi i64 [ 0, %19 ], [ %26, %25 ]
  %24 = getelementptr inbounds nuw [3 x %struct.git_hash_algo], ptr @hash_algos, i64 0, i64 %.0811.i.i.i
  %.not.i.i.i = icmp eq ptr %22, %24
  br i1 %.not.i.i.i, label %.split.loop.exit9.i.i.i, label %25

25:                                               ; preds = %23
  %26 = add nuw nsw i64 %.0811.i.i.i, 1
  %exitcond.not.i.i.i = icmp eq i64 %26, 3
  br i1 %exitcond.not.i.i.i, label %gitmodule_oid_from_commit.exit.thread, label %23, !llvm.loop !81

.split.loop.exit9.i.i.i:                          ; preds = %23
  %27 = trunc nuw nsw i64 %.0811.i.i.i to i32
  br label %gitmodule_oid_from_commit.exit.thread

gitmodule_oid_from_commit.exit.thread:            ; preds = %25, %.split.loop.exit9.i.i.i
  %.2.i.i.i = phi i32 [ %27, %.split.loop.exit9.i.i.i ], [ 0, %25 ]
  %28 = getelementptr inbounds nuw i8, ptr %3, i64 32
  store i32 %.2.i.i.i, ptr %28, align 4, !tbaa !82
  br label %35

gitmodule_oid_from_commit.exit:                   ; preds = %submodule_cache_check_init.exit
  %29 = tail call ptr @oid_to_hex(ptr noundef nonnull %0) #15
  call void (ptr, ptr, ...) @strbuf_addf(ptr noundef nonnull %2, ptr noundef nonnull @.str.37, ptr noundef %29) #15
  %30 = load ptr, ptr @the_repository, align 8, !tbaa !54
  %31 = getelementptr inbounds nuw i8, ptr %2, i64 16
  %32 = load ptr, ptr %31, align 8, !tbaa !83
  %33 = call i32 @repo_get_oid(ptr noundef %30, ptr noundef %32, ptr noundef nonnull %3) #15
  %34 = icmp slt i32 %33, 0
  br i1 %34, label %39, label %gitmodule_oid_from_commit.exit._crit_edge

gitmodule_oid_from_commit.exit._crit_edge:        ; preds = %gitmodule_oid_from_commit.exit
  %.pre = load ptr, ptr %31, align 8, !tbaa !83
  %.pre5 = load ptr, ptr @the_repository, align 8, !tbaa !54
  br label %35

35:                                               ; preds = %gitmodule_oid_from_commit.exit._crit_edge, %gitmodule_oid_from_commit.exit.thread
  %36 = phi ptr [ %.pre5, %gitmodule_oid_from_commit.exit._crit_edge ], [ %20, %gitmodule_oid_from_commit.exit.thread ]
  %37 = phi ptr [ %.pre, %gitmodule_oid_from_commit.exit._crit_edge ], [ @strbuf_slopbuf, %gitmodule_oid_from_commit.exit.thread ]
  %38 = call i32 @git_config_from_blob_oid(ptr noundef nonnull @gitmodules_cb, ptr noundef %37, ptr noundef %36, ptr noundef nonnull %3, ptr noundef %36, i32 noundef 0) #15
  br label %39

39:                                               ; preds = %35, %gitmodule_oid_from_commit.exit
  call void @strbuf_release(ptr noundef nonnull %2) #15
  %40 = load ptr, ptr @the_repository, align 8, !tbaa !54
  %41 = getelementptr inbounds nuw i8, ptr %40, i64 376
  %42 = load ptr, ptr %41, align 8, !tbaa !31
  %43 = getelementptr inbounds nuw i8, ptr %42, i64 96
  %44 = load i8, ptr %43, align 8
  %45 = or i8 %44, 2
  store i8 %45, ptr %43, align 8
  call void @llvm.lifetime.end.p0(i64 36, ptr nonnull %3) #15
  call void @llvm.lifetime.end.p0(i64 24, ptr nonnull %2) #15
  ret void
}